target datalayout = "e-m:e-p270:32:32-p271:32:32-p272:64:64-i64:64-i128:128-f80:128-n8:16:32:64-S128"
target triple = "x86_64-pc-linux-gnu"

%struct.AVChannelLayout = type { i32, i32, %union.anon.1, ptr }
%union.anon.1 = type { i64 }
%struct.AVRational = type { i32, i32 }
%struct.AVFilterContext = type { ptr, ptr, ptr, ptr, ptr, i32, ptr, ptr, i32, ptr, ptr, i32, i32, ptr, ptr, ptr, ptr, i32, ptr, i32, i32 }
%struct.ScrollContext = type { ptr, float, float, float, float, float, float, [4 x i32], [4 x i32], ptr, i32, i32, [4 x i32], [4 x i32] }
%struct.ThreadData = type { ptr, ptr }
%struct.AVFrame = type { [8 x ptr], [8 x i32], ptr, i32, i32, i32, i32, i32, %struct.AVRational, i64, i64, %struct.AVRational, i32, ptr, i32, i32, [8 x ptr], ptr, i32, ptr, i32, i32, i32, i32, i32, i32, i32, i64, ptr, i32, ptr, ptr, i64, i64, i64, i64, ptr, %struct.AVChannelLayout, i64 }

; Function Attrs: nounwind uwtable
define internal i32 @scroll_slice(ptr noundef %0, ptr noundef %1, i32 noundef %2, i32 noundef %3) #1 {
  %5 = alloca ptr, align 8
  %6 = alloca ptr, align 8
  %7 = alloca i32, align 4
  %8 = alloca i32, align 4
  %9 = alloca ptr, align 8
  %10 = alloca ptr, align 8
  %11 = alloca ptr, align 8
  %12 = alloca ptr, align 8
  %13 = alloca i32, align 4
  %14 = alloca i32, align 4
  %15 = alloca ptr, align 8
  %16 = alloca i32, align 4
  %17 = alloca i32, align 4
  %18 = alloca i32, align 4
  %19 = alloca i32, align 4
  %20 = alloca ptr, align 8
  %21 = alloca i32, align 4
  %22 = alloca i32, align 4
  %23 = alloca ptr, align 8
  store ptr %0, ptr %5, align 8, !tbaa !23
  store ptr %1, ptr %6, align 8, !tbaa !69
  store i32 %2, ptr %7, align 4, !tbaa !52
  store i32 %3, ptr %8, align 4, !tbaa !52
  call void @llvm.lifetime.start.p0(i64 8, ptr %9) #7
  %24 = load ptr, ptr %5, align 8, !tbaa !23
  %25 = getelementptr inbounds nuw %struct.AVFilterContext, ptr %24, i32 0, i32 9
  %26 = load ptr, ptr %25, align 8, !tbaa !36
  store ptr %26, ptr %9, align 8, !tbaa !37
  call void @llvm.lifetime.start.p0(i64 8, ptr %10) #7
  %27 = load ptr, ptr %6, align 8, !tbaa !69
  store ptr %27, ptr %10, align 8, !tbaa !70
  call void @llvm.lifetime.start.p0(i64 8, ptr %11) #7
  %28 = load ptr, ptr %10, align 8, !tbaa !70
  %29 = getelementptr inbounds nuw %struct.ThreadData, ptr %28, i32 0, i32 0
  %30 = load ptr, ptr %29, align 8, !tbaa !64
  store ptr %30, ptr %11, align 8, !tbaa !9
  call void @llvm.lifetime.start.p0(i64 8, ptr %12) #7
  %31 = load ptr, ptr %10, align 8, !tbaa !70
  %32 = getelementptr inbounds nuw %struct.ThreadData, ptr %31, i32 0, i32 1
  %33 = load ptr, ptr %32, align 8, !tbaa !66
  store ptr %33, ptr %12, align 8, !tbaa !9
  call void @llvm.lifetime.start.p0(i64 4, ptr %13) #7
  store i32 0, ptr %13, align 4, !tbaa !52
  br label %34

34:                                               ; preds = %191, %4
  %35 = load i32, ptr %13, align 4, !tbaa !52
  %36 = load ptr, ptr %9, align 8, !tbaa !37
  %37 = getelementptr inbounds nuw %struct.ScrollContext, ptr %36, i32 0, i32 10
  %38 = load i32, ptr %37, align 8, !tbaa !47
  %39 = icmp slt i32 %35, %38
  br i1 %39, label %41, label %40

40:                                               ; preds = %34
  store i32 2, ptr %14, align 4
  call void @llvm.lifetime.end.p0(i64 4, ptr %13) #7
  br label %194

41:                                               ; preds = %34
  call void @llvm.lifetime.start.p0(i64 8, ptr %15) #7
  %42 = load ptr, ptr %11, align 8, !tbaa !9
  %43 = getelementptr inbounds nuw %struct.AVFrame, ptr %42, i32 0, i32 0
  %44 = load i32, ptr %13, align 4, !tbaa !52
  %45 = sext i32 %44 to i64
  %46 = getelementptr inbounds [8 x ptr], ptr %43, i64 0, i64 %45
  %47 = load ptr, ptr %46, align 8, !tbaa !72
  store ptr %47, ptr %15, align 8, !tbaa !72
  call void @llvm.lifetime.start.p0(i64 4, ptr %16) #7
  %48 = load ptr, ptr %9, align 8, !tbaa !37
  %49 = getelementptr inbounds nuw %struct.ScrollContext, ptr %48, i32 0, i32 13
  %50 = load i32, ptr %13, align 4, !tbaa !52
  %51 = sext i32 %50 to i64
  %52 = getelementptr inbounds [4 x i32], ptr %49, i64 0, i64 %51
  %53 = load i32, ptr %52, align 4, !tbaa !52
  store i32 %53, ptr %16, align 4, !tbaa !52
  call void @llvm.lifetime.start.p0(i64 4, ptr %17) #7
  %54 = load ptr, ptr %9, align 8, !tbaa !37
  %55 = getelementptr inbounds nuw %struct.ScrollContext, ptr %54, i32 0, i32 12
  %56 = load i32, ptr %13, align 4, !tbaa !52
  %57 = sext i32 %56 to i64
  %58 = getelementptr inbounds [4 x i32], ptr %55, i64 0, i64 %57
  %59 = load i32, ptr %58, align 4, !tbaa !52
  %60 = load ptr, ptr %9, align 8, !tbaa !37
  %61 = getelementptr inbounds nuw %struct.ScrollContext, ptr %60, i32 0, i32 11
  %62 = load i32, ptr %61, align 4, !tbaa !50
  %63 = mul nsw i32 %59, %62
  store i32 %63, ptr %17, align 4, !tbaa !52
  call void @llvm.lifetime.start.p0(i64 4, ptr %18) #7
  %64 = load i32, ptr %16, align 4, !tbaa !52
  %65 = load i32, ptr %7, align 4, !tbaa !52
  %66 = mul nsw i32 %64, %65
  %67 = load i32, ptr %8, align 4, !tbaa !52
  %68 = sdiv i32 %66, %67
  store i32 %68, ptr %18, align 4, !tbaa !52
  call void @llvm.lifetime.start.p0(i64 4, ptr %19) #7
  %69 = load i32, ptr %16, align 4, !tbaa !52
  %70 = load i32, ptr %7, align 4, !tbaa !52
  %71 = add nsw i32 %70, 1
  %72 = mul nsw i32 %69, %71
  %73 = load i32, ptr %8, align 4, !tbaa !52
  %74 = sdiv i32 %72, %73
  store i32 %74, ptr %19, align 4, !tbaa !52
  call void @llvm.lifetime.start.p0(i64 8, ptr %20) #7
  %75 = load ptr, ptr %12, align 8, !tbaa !9
  %76 = getelementptr inbounds nuw %struct.AVFrame, ptr %75, i32 0, i32 0
  %77 = load i32, ptr %13, align 4, !tbaa !52
  %78 = sext i32 %77 to i64
  %79 = getelementptr inbounds [8 x ptr], ptr %76, i64 0, i64 %78
  %80 = load ptr, ptr %79, align 8, !tbaa !72
  %81 = load i32, ptr %18, align 4, !tbaa !52
  %82 = load ptr, ptr %12, align 8, !tbaa !9
  %83 = getelementptr inbounds nuw %struct.AVFrame, ptr %82, i32 0, i32 1
  %84 = load i32, ptr %13, align 4, !tbaa !52
  %85 = sext i32 %84 to i64
  %86 = getelementptr inbounds [8 x i32], ptr %83, i64 0, i64 %85
  %87 = load i32, ptr %86, align 4, !tbaa !52
  %88 = mul nsw i32 %81, %87
  %89 = sext i32 %88 to i64
  %90 = getelementptr inbounds i8, ptr %80, i64 %89
  store ptr %90, ptr %20, align 8, !tbaa !72
  call void @llvm.lifetime.start.p0(i64 4, ptr %21) #7
  %91 = load i32, ptr %18, align 4, !tbaa !52
  store i32 %91, ptr %21, align 4, !tbaa !52
  br label %92

92:                                               ; preds = %187, %41
  %93 = load i32, ptr %21, align 4, !tbaa !52
  %94 = load i32, ptr %19, align 4, !tbaa !52
  %95 = icmp slt i32 %93, %94
  br i1 %95, label %97, label %96

96:                                               ; preds = %92
  store i32 5, ptr %14, align 4
  call void @llvm.lifetime.end.p0(i64 4, ptr %21) #7
  br label %190

97:                                               ; preds = %92
  call void @llvm.lifetime.start.p0(i64 4, ptr %22) #7
  %98 = load i32, ptr %21, align 4, !tbaa !52
  %99 = load ptr, ptr %9, align 8, !tbaa !37
  %100 = getelementptr inbounds nuw %struct.ScrollContext, ptr %99, i32 0, i32 8
  %101 = load i32, ptr %13, align 4, !tbaa !52
  %102 = sext i32 %101 to i64
  %103 = getelementptr inbounds [4 x i32], ptr %100, i64 0, i64 %102
  %104 = load i32, ptr %103, align 4, !tbaa !52
  %105 = add nsw i32 %98, %104
  %106 = load i32, ptr %16, align 4, !tbaa !52
  %107 = srem i32 %105, %106
  store i32 %107, ptr %22, align 4, !tbaa !52
  call void @llvm.lifetime.start.p0(i64 8, ptr %23) #7
  %108 = load ptr, ptr %15, align 8, !tbaa !72
  %109 = load i32, ptr %22, align 4, !tbaa !52
  %110 = load ptr, ptr %11, align 8, !tbaa !9
  %111 = getelementptr inbounds nuw %struct.AVFrame, ptr %110, i32 0, i32 1
  %112 = load i32, ptr %13, align 4, !tbaa !52
  %113 = sext i32 %112 to i64
  %114 = getelementptr inbounds [8 x i32], ptr %111, i64 0, i64 %113
  %115 = load i32, ptr %114, align 4, !tbaa !52
  %116 = mul nsw i32 %109, %115
  %117 = sext i32 %116 to i64
  %118 = getelementptr inbounds i8, ptr %108, i64 %117
  store ptr %118, ptr %23, align 8, !tbaa !72
  %119 = load ptr, ptr %9, align 8, !tbaa !37
  %120 = getelementptr inbounds nuw %struct.ScrollContext, ptr %119, i32 0, i32 7
  %121 = load i32, ptr %13, align 4, !tbaa !52
  %122 = sext i32 %121 to i64
  %123 = getelementptr inbounds [4 x i32], ptr %120, i64 0, i64 %122
  %124 = load i32, ptr %123, align 4, !tbaa !52
  %125 = load i32, ptr %17, align 4, !tbaa !52
  %126 = icmp slt i32 %124, %125
  br i1 %126, label %127, label %147

127:                                              ; preds = %97
  %128 = load ptr, ptr %20, align 8, !tbaa !72
  %129 = load ptr, ptr %23, align 8, !tbaa !72
  %130 = load ptr, ptr %9, align 8, !tbaa !37
  %131 = getelementptr inbounds nuw %struct.ScrollContext, ptr %130, i32 0, i32 7
  %132 = load i32, ptr %13, align 4, !tbaa !52
  %133 = sext i32 %132 to i64
  %134 = getelementptr inbounds [4 x i32], ptr %131, i64 0, i64 %133
  %135 = load i32, ptr %134, align 4, !tbaa !52
  %136 = sext i32 %135 to i64
  %137 = getelementptr inbounds i8, ptr %129, i64 %136
  %138 = load i32, ptr %17, align 4, !tbaa !52
  %139 = load ptr, ptr %9, align 8, !tbaa !37
  %140 = getelementptr inbounds nuw %struct.ScrollContext, ptr %139, i32 0, i32 7
  %141 = load i32, ptr %13, align 4, !tbaa !52
  %142 = sext i32 %141 to i64
  %143 = getelementptr inbounds [4 x i32], ptr %140, i64 0, i64 %142
  %144 = load i32, ptr %143, align 4, !tbaa !52
  %145 = sub nsw i32 %138, %144
  %146 = sext i32 %145 to i64
  call void @llvm.memcpy.p0.p0.i64(ptr align 1 %128, ptr align 1 %137, i64 %146, i1 false)
  br label %147

147:                                              ; preds = %127, %97
  %148 = load ptr, ptr %9, align 8, !tbaa !37
  %149 = getelementptr inbounds nuw %struct.ScrollContext, ptr %148, i32 0, i32 7
  %150 = load i32, ptr %13, align 4, !tbaa !52
  %151 = sext i32 %150 to i64
  %152 = getelementptr inbounds [4 x i32], ptr %149, i64 0, i64 %151
  %153 = load i32, ptr %152, align 4, !tbaa !52
  %154 = icmp sgt i32 %153, 0
  br i1 %154, label %155, label %177

155:                                              ; preds = %147
  %156 = load ptr, ptr %20, align 8, !tbaa !72
  %157 = load i32, ptr %17, align 4, !tbaa !52
  %158 = sext i32 %157 to i64
  %159 = getelementptr inbounds i8, ptr %156, i64 %158
  %160 = load ptr, ptr %9, align 8, !tbaa !37
  %161 = getelementptr inbounds nuw %struct.ScrollContext, ptr %160, i32 0, i32 7
  %162 = load i32, ptr %13, align 4, !tbaa !52
  %163 = sext i32 %162 to i64
  %164 = getelementptr inbounds [4 x i32], ptr %161, i64 0, i64 %163
  %165 = load i32, ptr %164, align 4, !tbaa !52
  %166 = sext i32 %165 to i64
  %167 = sub i64 0, %166
  %168 = getelementptr inbounds i8, ptr %159, i64 %167
  %169 = load ptr, ptr %23, align 8, !tbaa !72
  %170 = load ptr, ptr %9, align 8, !tbaa !37
  %171 = getelementptr inbounds nuw %struct.ScrollContext, ptr %170, i32 0, i32 7
  %172 = load i32, ptr %13, align 4, !tbaa !52
  %173 = sext i32 %172 to i64
  %174 = getelementptr inbounds [4 x i32], ptr %171, i64 0, i64 %173
  %175 = load i32, ptr %174, align 4, !tbaa !52
  %176 = sext i32 %175 to i64
  call void @llvm.memcpy.p0.p0.i64(ptr align 1 %168, ptr align 1 %169, i64 %176, i1 false)
  br label %177

177:                                              ; preds = %155, %147
  %178 = load ptr, ptr %12, align 8, !tbaa !9
  %179 = getelementptr inbounds nuw %struct.AVFrame, ptr %178, i32 0, i32 1
  %180 = load i32, ptr %13, align 4, !tbaa !52
  %181 = sext i32 %180 to i64
  %182 = getelementptr inbounds [8 x i32], ptr %179, i64 0, i64 %181
  %183 = load i32, ptr %182, align 4, !tbaa !52
  %184 = load ptr, ptr %20, align 8, !tbaa !72
  %185 = sext i32 %183 to i64
  %186 = getelementptr inbounds i8, ptr %184, i64 %185
  store ptr %186, ptr %20, align 8, !tbaa !72
  call void @llvm.lifetime.end.p0(i64 8, ptr %23) #7
  call void @llvm.lifetime.end.p0(i64 4, ptr %22) #7
  br label %187

187:                                              ; preds = %177
  %188 = load i32, ptr %21, align 4, !tbaa !52
  %189 = add nsw i32 %188, 1
  store i32 %189, ptr %21, align 4, !tbaa !52
  br label %92, !llvm.loop !73

190:                                              ; preds = %96
  call void @llvm.lifetime.end.p0(i64 8, ptr %20) #7
  call void @llvm.lifetime.end.p0(i64 4, ptr %19) #7
  call void @llvm.lifetime.end.p0(i64 4, ptr %18) #7
  call void @llvm.lifetime.end.p0(i64 4, ptr %17) #7
  call void @llvm.lifetime.end.p0(i64 4, ptr %16) #7
  call void @llvm.lifetime.end.p0(i64 8, ptr %15) #7
  br label %191

191:                                              ; preds = %190
  %192 = load i32, ptr %13, align 4, !tbaa !52
  %193 = add nsw i32 %192, 1
  store i32 %193, ptr %13, align 4, !tbaa !52
  br label %34, !llvm.loop !75

194:                                              ; preds = %40
  store i32 1, ptr %14, align 4
  call void @llvm.lifetime.end.p0(i64 8, ptr %12) #7
  call void @llvm.lifetime.end.p0(i64 8, ptr %11) #7
  call void @llvm.lifetime.end.p0(i64 8, ptr %10) #7
  call void @llvm.lifetime.end.p0(i64 8, ptr %9) #7
  ret i32 0
}