; Function Attrs: nofree norecurse nosync nounwind memory(readwrite, inaccessiblemem: none) uwtable
define internal noundef i32 @scroll_slice(ptr noundef readonly captures(none) %0, ptr noundef readonly captures(none) %1, i32 noundef %2, i32 noundef %3) #3 {
  %5 = getelementptr inbounds nuw i8, ptr %0, i64 72
  %6 = load ptr, ptr %5, align 8, !tbaa !35
  %7 = load ptr, ptr %1, align 8, !tbaa !54
  %8 = getelementptr inbounds nuw i8, ptr %1, i64 8
  %9 = load ptr, ptr %8, align 8, !tbaa !56
  %10 = getelementptr inbounds nuw i8, ptr %6, i64 72
  %11 = load i32, ptr %10, align 8, !tbaa !61
  %12 = icmp sgt i32 %11, 0
  br i1 %12, label %.lr.ph67, label %._crit_edge68

.lr.ph67:                                         ; preds = %4
  %13 = getelementptr inbounds nuw i8, ptr %6, i64 96
  %14 = getelementptr inbounds nuw i8, ptr %6, i64 80
  %15 = getelementptr inbounds nuw i8, ptr %6, i64 76
  %16 = add nsw i32 %2, 1
  %17 = getelementptr inbounds nuw i8, ptr %9, i64 64
  %18 = getelementptr inbounds nuw i8, ptr %6, i64 48
  %19 = getelementptr inbounds nuw i8, ptr %7, i64 64
  %20 = getelementptr inbounds nuw i8, ptr %6, i64 32
  br label %21

._crit_edge68:                                    ; preds = %._crit_edge, %4
  ret i32 0

21:                                               ; preds = %.lr.ph67, %._crit_edge
  %22 = phi i32 [ %11, %.lr.ph67 ], [ %47, %._crit_edge ]
  %indvars.iv = phi i64 [ 0, %.lr.ph67 ], [ %indvars.iv.next, %._crit_edge ]
  %23 = getelementptr inbounds nuw [8 x ptr], ptr %7, i64 0, i64 %indvars.iv
  %24 = load ptr, ptr %23, align 8, !tbaa !66
  %25 = getelementptr inbounds nuw [4 x i32], ptr %13, i64 0, i64 %indvars.iv
  %26 = load i32, ptr %25, align 4, !tbaa !51
  %27 = getelementptr inbounds nuw [4 x i32], ptr %14, i64 0, i64 %indvars.iv
  %28 = load i32, ptr %27, align 4, !tbaa !51
  %29 = load i32, ptr %15, align 4, !tbaa !53
  %30 = mul nsw i32 %29, %28
  %31 = mul nsw i32 %26, %2
  %32 = sdiv i32 %31, %3
  %33 = mul nsw i32 %26, %16
  %34 = sdiv i32 %33, %3
  %35 = getelementptr inbounds nuw [8 x i32], ptr %17, i64 0, i64 %indvars.iv
  %36 = icmp slt i32 %32, %34
  br i1 %36, label %.lr.ph, label %._crit_edge

.lr.ph:                                           ; preds = %21
  %37 = getelementptr inbounds nuw [8 x ptr], ptr %9, i64 0, i64 %indvars.iv
  %38 = load ptr, ptr %37, align 8, !tbaa !66
  %39 = load i32, ptr %35, align 4, !tbaa !51
  %40 = mul nsw i32 %39, %32
  %41 = sext i32 %40 to i64
  %42 = getelementptr inbounds i8, ptr %38, i64 %41
  %43 = getelementptr inbounds nuw [4 x i32], ptr %18, i64 0, i64 %indvars.iv
  %44 = getelementptr inbounds nuw [8 x i32], ptr %19, i64 0, i64 %indvars.iv
  %45 = getelementptr inbounds nuw [4 x i32], ptr %20, i64 0, i64 %indvars.iv
  %46 = sext i32 %30 to i64
  br label %50

._crit_edge.loopexit:                             ; preds = %73
  %.pre = load i32, ptr %10, align 8, !tbaa !61
  br label %._crit_edge

._crit_edge:                                      ; preds = %._crit_edge.loopexit, %21
  %47 = phi i32 [ %.pre, %._crit_edge.loopexit ], [ %22, %21 ]
  %indvars.iv.next = add nuw nsw i64 %indvars.iv, 1
  %48 = sext i32 %47 to i64
  %49 = icmp slt i64 %indvars.iv.next, %48
  br i1 %49, label %21, label %._crit_edge68, !llvm.loop !67

50:                                               ; preds = %.lr.ph, %73
  %.05864 = phi i32 [ %32, %.lr.ph ], [ %77, %73 ]
  %.05963 = phi ptr [ %42, %.lr.ph ], [ %76, %73 ]
  %51 = load i32, ptr %43, align 4, !tbaa !51
  %52 = add nsw i32 %51, %.05864
  %53 = srem i32 %52, %26
  %54 = load i32, ptr %44, align 4, !tbaa !51
  %55 = mul nsw i32 %54, %53
  %56 = sext i32 %55 to i64
  %57 = getelementptr inbounds i8, ptr %24, i64 %56
  %58 = load i32, ptr %45, align 4, !tbaa !51
  %59 = icmp slt i32 %58, %30
  br i1 %59, label %60, label %65

60:                                               ; preds = %50
  %61 = sext i32 %58 to i64
  %62 = getelementptr inbounds i8, ptr %57, i64 %61
  %63 = sub nsw i32 %30, %58
  %64 = sext i32 %63 to i64
  tail call void @llvm.memcpy.p0.p0.i64(ptr align 1 %.05963, ptr align 1 %62, i64 %64, i1 false)
  %.pr = load i32, ptr %45, align 4, !tbaa !51
  br label %65

65:                                               ; preds = %60, %50
  %66 = phi i32 [ %.pr, %60 ], [ %58, %50 ]
  %67 = icmp sgt i32 %66, 0
  br i1 %67, label %68, label %73

68:                                               ; preds = %65
  %69 = getelementptr inbounds i8, ptr %.05963, i64 %46
  %70 = zext nneg i32 %66 to i64
  %71 = sub nsw i64 0, %70
  %72 = getelementptr inbounds i8, ptr %69, i64 %71
  tail call void @llvm.memcpy.p0.p0.i64(ptr nonnull align 1 %72, ptr align 1 %57, i64 %70, i1 false)
  br label %73

73:                                               ; preds = %68, %65
  %74 = load i32, ptr %35, align 4, !tbaa !51
  %75 = sext i32 %74 to i64
  %76 = getelementptr inbounds i8, ptr %.05963, i64 %75
  %77 = add nsw i32 %.05864, 1
  %exitcond.not = icmp eq i32 %77, %34
  br i1 %exitcond.not, label %._crit_edge.loopexit, label %50, !llvm.loop !69
}